target datalayout = "e-m:e-p270:32:32-p271:32:32-p272:64:64-i64:64-i128:128-f80:128-n8:16:32:64-S128"
target triple = "x86_64-pc-linux-gnu"

%struct.expert_field = type { i32, i32 }

@hf_ansi_801_bs_ls_rev = internal global i32 0, align 4
@hf_ansi_801_gps_capability_indicator = internal global i32 0, align 4
@hf_ansi_801_afltc_id = internal global i32 0, align 4
@hf_ansi_801_apdc_id = internal global i32 0, align 4
@ei_ansi_801_extraneous_data = internal global %struct.expert_field zeroinitializer, align 4
@ei_ansi_801_short_data = internal global %struct.expert_field zeroinitializer, align 4
@.str.276 = private unnamed_addr constant [70 x i8] c"APDC_ID: Autonomous position determination capability indicator: None\00", align 1

; Function Attrs: null_pointer_is_valid sspstrong uwtable
define internal void @for_pr_bs_cap(ptr noundef %0, ptr noundef %1, ptr noundef %2, i32 noundef %3, i32 noundef %4) #0 {
  %6 = alloca ptr, align 8
  %7 = alloca ptr, align 8
  %8 = alloca ptr, align 8
  %9 = alloca i32, align 4
  %10 = alloca i32, align 4
  %11 = alloca i8, align 1
  %12 = alloca i32, align 4
  %13 = alloca i32, align 4
  store ptr %0, ptr %6, align 8
  store ptr %1, ptr %7, align 8
  store ptr %2, ptr %8, align 8
  store i32 %3, ptr %9, align 4
  store i32 %4, ptr %10, align 4
  call void @llvm.lifetime.start.p0(i64 1, ptr %11) #6
  call void @llvm.lifetime.start.p0(i64 4, ptr %12) #6
  %14 = load i32, ptr %10, align 4
  store i32 %14, ptr %12, align 4
  %15 = load i32, ptr %9, align 4
  %16 = icmp ult i32 %15, 2
  br i1 %16, label %17, label %24

17:                                               ; preds = %5
  %18 = load ptr, ptr %8, align 8
  %19 = load ptr, ptr %7, align 8
  %20 = load ptr, ptr %6, align 8
  %21 = load i32, ptr %10, align 4
  %22 = load i32, ptr %9, align 4
  %23 = call ptr @proto_tree_add_expert(ptr noundef %18, ptr noundef %19, ptr noundef @ei_ansi_801_short_data, ptr noundef %20, i32 noundef %21, i32 noundef %22)
  store i32 1, ptr %13, align 4
  br label %80

24:                                               ; preds = %5
  %25 = load ptr, ptr %8, align 8
  %26 = load i32, ptr @hf_ansi_801_bs_ls_rev, align 4
  %27 = load ptr, ptr %6, align 8
  %28 = load i32, ptr %10, align 4
  %29 = call ptr @proto_tree_add_item(ptr noundef %25, i32 noundef %26, ptr noundef %27, i32 noundef %28, i32 noundef 1, i32 noundef 0)
  %30 = load ptr, ptr %8, align 8
  %31 = load i32, ptr @hf_ansi_801_gps_capability_indicator, align 4
  %32 = load ptr, ptr %6, align 8
  %33 = load i32, ptr %10, align 4
  %34 = call ptr @proto_tree_add_item(ptr noundef %30, i32 noundef %31, ptr noundef %32, i32 noundef %33, i32 noundef 1, i32 noundef 0)
  %35 = load ptr, ptr %8, align 8
  %36 = load i32, ptr @hf_ansi_801_afltc_id, align 4
  %37 = load ptr, ptr %6, align 8
  %38 = load i32, ptr %10, align 4
  %39 = call ptr @proto_tree_add_item(ptr noundef %35, i32 noundef %36, ptr noundef %37, i32 noundef %38, i32 noundef 1, i32 noundef 0)
  %40 = load i32, ptr %10, align 4
  %41 = add i32 %40, 1
  store i32 %41, ptr %10, align 4
  %42 = load ptr, ptr %6, align 8
  %43 = load i32, ptr %10, align 4
  %44 = call zeroext i8 @tvb_get_uint8(ptr noundef %42, i32 noundef %43)
  store i8 %44, ptr %11, align 1
  %45 = load i8, ptr %11, align 1
  %46 = zext i8 %45 to i32
  %47 = icmp eq i32 %46, 0
  br i1 %47, label %48, label %54

48:                                               ; preds = %24
  %49 = load ptr, ptr %8, align 8
  %50 = load i32, ptr @hf_ansi_801_apdc_id, align 4
  %51 = load ptr, ptr %6, align 8
  %52 = load i32, ptr %10, align 4
  %53 = call ptr (ptr, i32, ptr, i32, i32, i32, ptr, ...) @proto_tree_add_uint_format(ptr noundef %49, i32 noundef %50, ptr noundef %51, i32 noundef %52, i32 noundef 1, i32 noundef 0, ptr noundef @.str.276)
  br label %60

54:                                               ; preds = %24
  %55 = load ptr, ptr %8, align 8
  %56 = load i32, ptr @hf_ansi_801_apdc_id, align 4
  %57 = load ptr, ptr %6, align 8
  %58 = load i32, ptr %10, align 4
  %59 = call ptr @proto_tree_add_item(ptr noundef %55, i32 noundef %56, ptr noundef %57, i32 noundef %58, i32 noundef 1, i32 noundef 0)
  br label %60

60:                                               ; preds = %54, %48
  %61 = load i32, ptr %10, align 4
  %62 = add i32 %61, 1
  store i32 %62, ptr %10, align 4
  %63 = load i32, ptr %9, align 4
  %64 = load i32, ptr %10, align 4
  %65 = load i32, ptr %12, align 4
  %66 = sub i32 %64, %65
  %67 = icmp ugt i32 %63, %66
  br i1 %67, label %68, label %79

68:                                               ; preds = %60
  %69 = load ptr, ptr %8, align 8
  %70 = load ptr, ptr %7, align 8
  %71 = load ptr, ptr %6, align 8
  %72 = load i32, ptr %10, align 4
  %73 = load i32, ptr %9, align 4
  %74 = load i32, ptr %10, align 4
  %75 = load i32, ptr %12, align 4
  %76 = sub i32 %74, %75
  %77 = sub i32 %73, %76
  %78 = call ptr @proto_tree_add_expert(ptr noundef %69, ptr noundef %70, ptr noundef @ei_ansi_801_extraneous_data, ptr noundef %71, i32 noundef %72, i32 noundef %77)
  br label %79

79:                                               ; preds = %68, %60
  store i32 0, ptr %13, align 4
  br label %80

80:                                               ; preds = %79, %17
  call void @llvm.lifetime.end.p0(i64 4, ptr %12) #6
  call void @llvm.lifetime.end.p0(i64 1, ptr %11) #6
  %81 = load i32, ptr %13, align 4
  switch i32 %81, label %83 [
    i32 0, label %82
    i32 1, label %82
  ]

82:                                               ; preds = %80, %80
  ret void

83:                                               ; preds = %80
  unreachable
}