; Function Attrs: null_pointer_is_valid sspstrong uwtable
define internal void @for_pr_bs_cap(ptr noundef %0, ptr noundef %1, ptr noundef %2, i32 noundef %3, i32 noundef %4) #0 {
  %6 = icmp ult i32 %3, 2
  br i1 %6, label %7, label %9

7:                                                ; preds = %5
  %8 = tail call ptr @proto_tree_add_expert(ptr noundef %2, ptr noundef %1, ptr noundef nonnull @ei_ansi_801_short_data, ptr noundef %0, i32 noundef %4, i32 noundef %3)
  br label %29

9:                                                ; preds = %5
  %10 = load i32, ptr @hf_ansi_801_bs_ls_rev, align 4
  %11 = tail call ptr @proto_tree_add_item(ptr noundef %2, i32 noundef %10, ptr noundef %0, i32 noundef %4, i32 noundef 1, i32 noundef 0)
  %12 = load i32, ptr @hf_ansi_801_gps_capability_indicator, align 4
  %13 = tail call ptr @proto_tree_add_item(ptr noundef %2, i32 noundef %12, ptr noundef %0, i32 noundef %4, i32 noundef 1, i32 noundef 0)
  %14 = load i32, ptr @hf_ansi_801_afltc_id, align 4
  %15 = tail call ptr @proto_tree_add_item(ptr noundef %2, i32 noundef %14, ptr noundef %0, i32 noundef %4, i32 noundef 1, i32 noundef 0)
  %16 = add i32 %4, 1
  %17 = tail call zeroext i8 @tvb_get_uint8(ptr noundef %0, i32 noundef %16)
  %18 = icmp eq i8 %17, 0
  %19 = load i32, ptr @hf_ansi_801_apdc_id, align 4
  br i1 %18, label %20, label %22

20:                                               ; preds = %9
  %21 = tail call ptr (ptr, i32, ptr, i32, i32, i32, ptr, ...) @proto_tree_add_uint_format(ptr noundef %2, i32 noundef %19, ptr noundef %0, i32 noundef %16, i32 noundef 1, i32 noundef 0, ptr noundef nonnull @.str.276)
  br label %24

22:                                               ; preds = %9
  %23 = tail call ptr @proto_tree_add_item(ptr noundef %2, i32 noundef %19, ptr noundef %0, i32 noundef %16, i32 noundef 1, i32 noundef 0)
  br label %24

24:                                               ; preds = %22, %20
  %.not = icmp eq i32 %3, 2
  br i1 %.not, label %29, label %25

25:                                               ; preds = %24
  %26 = add i32 %4, 2
  %27 = add i32 %3, -2
  %28 = tail call ptr @proto_tree_add_expert(ptr noundef %2, ptr noundef %1, ptr noundef nonnull @ei_ansi_801_extraneous_data, ptr noundef %0, i32 noundef %26, i32 noundef %27)
  br label %29

29:                                               ; preds = %24, %25, %7
  ret void
}